; Function Attrs: mustprogress nounwind uwtable
define hidden noundef i32 @_ZN8JvmtiEnv19SetJNIFunctionTableEPK19JNINativeInterface_(ptr nocapture noundef nonnull readnone align 8 dereferenceable(460) %0, ptr noundef %1) local_unnamed_addr #0 align 2 {
  %3 = alloca %class.VM_JNIFunctionTableCopier, align 8
  %4 = getelementptr inbounds i8, ptr %3, i64 8
  store ptr null, ptr %4, align 8
  store ptr getelementptr inbounds inrange(-16, 80) (i8, ptr @_ZTV25VM_JNIFunctionTableCopier, i64 16), ptr %3, align 8
  %5 = getelementptr inbounds i8, ptr %3, i64 16
  store ptr %1, ptr %5, align 8
  call void @_ZN8VMThread7executeEP12VM_Operation(ptr noundef nonnull %3) #17
  ret i32 0
}